target datalayout = "e-m:e-p270:32:32-p271:32:32-p272:64:64-i64:64-i128:128-f80:128-n8:16:32:64-S128"
target triple = "x86_64-pc-linux-gnu"

; Function Attrs: alwaysinline nounwind willreturn memory(none) uwtable
define internal i32 @av_clip_c(i32 noundef %0, i32 noundef %1, i32 noundef %2) #3 {
  %4 = alloca i32, align 4
  %5 = alloca i32, align 4
  %6 = alloca i32, align 4
  %7 = alloca i32, align 4
  store i32 %0, ptr %5, align 4, !tbaa !9
  store i32 %1, ptr %6, align 4, !tbaa !9
  store i32 %2, ptr %7, align 4, !tbaa !9
  %8 = load i32, ptr %5, align 4, !tbaa !9
  %9 = load i32, ptr %6, align 4, !tbaa !9
  %10 = icmp slt i32 %8, %9
  br i1 %10, label %11, label %13

11:                                               ; preds = %3
  %12 = load i32, ptr %6, align 4, !tbaa !9
  store i32 %12, ptr %4, align 4
  br label %21

13:                                               ; preds = %3
  %14 = load i32, ptr %5, align 4, !tbaa !9
  %15 = load i32, ptr %7, align 4, !tbaa !9
  %16 = icmp sgt i32 %14, %15
  br i1 %16, label %17, label %19

17:                                               ; preds = %13
  %18 = load i32, ptr %7, align 4, !tbaa !9
  store i32 %18, ptr %4, align 4
  br label %21

19:                                               ; preds = %13
  %20 = load i32, ptr %5, align 4, !tbaa !9
  store i32 %20, ptr %4, align 4
  br label %21

21:                                               ; preds = %19, %17, %11
  %22 = load i32, ptr %4, align 4
  ret i32 %22
}

; Function Attrs: nounwind uwtable
define internal i32 @xyz_to_barrel(ptr noundef %0, ptr noundef %1, i32 noundef %2, i32 noundef %3, ptr noundef %4, ptr noundef %5, ptr noundef %6, ptr noundef %7) #0 {
  %9 = alloca ptr, align 8
  %10 = alloca ptr, align 8
  %11 = alloca i32, align 4
  %12 = alloca i32, align 4
  %13 = alloca ptr, align 8
  %14 = alloca ptr, align 8
  %15 = alloca ptr, align 8
  %16 = alloca ptr, align 8
  %17 = alloca float, align 4
  %18 = alloca float, align 4
  %19 = alloca float, align 4
  %20 = alloca float, align 4
  %21 = alloca i32, align 4
  %22 = alloca i32, align 4
  %23 = alloca i32, align 4
  %24 = alloca i32, align 4
  %25 = alloca float, align 4
  %26 = alloca float, align 4
  %27 = alloca i32, align 4
  %28 = alloca i32, align 4
  %29 = alloca i32, align 4
  %30 = alloca i32, align 4
  %31 = alloca i32, align 4
  store ptr %0, ptr %9, align 8, !tbaa !4
  store ptr %1, ptr %10, align 8, !tbaa !188
  store i32 %2, ptr %11, align 4, !tbaa !9
  store i32 %3, ptr %12, align 4, !tbaa !9
  store ptr %4, ptr %13, align 8, !tbaa !21
  store ptr %5, ptr %14, align 8, !tbaa !21
  store ptr %6, ptr %15, align 8, !tbaa !188
  store ptr %7, ptr %16, align 8, !tbaa !188
  call void @llvm.lifetime.start.p0(i64 4, ptr %17) #13
  store float 0x3FEFAE1480000000, ptr %17, align 4, !tbaa !99
  call void @llvm.lifetime.start.p0(i64 4, ptr %18) #13
  %32 = load ptr, ptr %10, align 8, !tbaa !188
  %33 = getelementptr inbounds float, ptr %32, i64 0
  %34 = load float, ptr %33, align 4, !tbaa !99
  %35 = load ptr, ptr %10, align 8, !tbaa !188
  %36 = getelementptr inbounds float, ptr %35, i64 2
  %37 = load float, ptr %36, align 4, !tbaa !99
  %38 = call nsz float @llvm.atan2.f32(float %34, float %37)
  store float %38, ptr %18, align 4, !tbaa !99
  call void @llvm.lifetime.start.p0(i64 4, ptr %19) #13
  %39 = load ptr, ptr %10, align 8, !tbaa !188
  %40 = getelementptr inbounds float, ptr %39, i64 1
  %41 = load float, ptr %40, align 4, !tbaa !99
  %42 = call nsz float @llvm.asin.f32(float %41)
  store float %42, ptr %19, align 4, !tbaa !99
  call void @llvm.lifetime.start.p0(i64 4, ptr %20) #13
  store float 0x3FE921FB60000000, ptr %20, align 4, !tbaa !99
  call void @llvm.lifetime.start.p0(i64 4, ptr %21) #13
  call void @llvm.lifetime.start.p0(i64 4, ptr %22) #13
  call void @llvm.lifetime.start.p0(i64 4, ptr %23) #13
  call void @llvm.lifetime.start.p0(i64 4, ptr %24) #13
  call void @llvm.lifetime.start.p0(i64 4, ptr %25) #13
  call void @llvm.lifetime.start.p0(i64 4, ptr %26) #13
  call void @llvm.lifetime.start.p0(i64 4, ptr %27) #13
  call void @llvm.lifetime.start.p0(i64 4, ptr %28) #13
  %43 = load float, ptr %19, align 4, !tbaa !99
  %44 = fcmp nsz ogt float %43, 0xBFE921FB60000000
  br i1 %44, label %45, label %69

45:                                               ; preds = %8
  %46 = load float, ptr %19, align 4, !tbaa !99
  %47 = fcmp nsz olt float %46, 0x3FE921FB60000000
  br i1 %47, label %48, label %69

48:                                               ; preds = %45
  %49 = load i32, ptr %11, align 4, !tbaa !9
  %50 = mul nsw i32 4, %49
  %51 = sdiv i32 %50, 5
  store i32 %51, ptr %21, align 4, !tbaa !9
  %52 = load i32, ptr %12, align 4, !tbaa !9
  store i32 %52, ptr %22, align 4, !tbaa !9
  store i32 0, ptr %23, align 4, !tbaa !9
  store i32 0, ptr %24, align 4, !tbaa !9
  %53 = load float, ptr %18, align 4, !tbaa !99
  %54 = fpext nsz float %53 to double
  %55 = fdiv nsz double %54, 0x400921FB54442D18
  %56 = call nsz double @llvm.fmuladd.f64(double %55, double 0x3FEFAE1480000000, double 1.000000e+00)
  %57 = load i32, ptr %21, align 4, !tbaa !9
  %58 = sitofp i32 %57 to double
  %59 = fmul nsz double %56, %58
  %60 = fdiv nsz double %59, 2.000000e+00
  %61 = fptrunc nsz double %60 to float
  store float %61, ptr %25, align 4, !tbaa !99
  %62 = load float, ptr %19, align 4, !tbaa !99
  %63 = fdiv nsz float %62, 0x3FE921FB60000000
  %64 = call nsz float @llvm.fmuladd.f32(float %63, float 0x3FEFAE1480000000, float 1.000000e+00)
  %65 = load i32, ptr %22, align 4, !tbaa !9
  %66 = sitofp i32 %65 to float
  %67 = fmul nsz float %64, %66
  %68 = fdiv nsz float %67, 2.000000e+00
  store float %68, ptr %26, align 4, !tbaa !99
  br label %125

69:                                               ; preds = %45, %8
  %70 = load i32, ptr %11, align 4, !tbaa !9
  %71 = sdiv i32 %70, 5
  store i32 %71, ptr %21, align 4, !tbaa !9
  %72 = load i32, ptr %12, align 4, !tbaa !9
  %73 = sdiv i32 %72, 2
  store i32 %73, ptr %22, align 4, !tbaa !9
  %74 = load i32, ptr %21, align 4, !tbaa !9
  %75 = mul nsw i32 4, %74
  store i32 %75, ptr %23, align 4, !tbaa !9
  %76 = load float, ptr %19, align 4, !tbaa !99
  %77 = fcmp nsz olt float %76, 0.000000e+00
  br i1 %77, label %78, label %95

78:                                               ; preds = %69
  %79 = load ptr, ptr %10, align 8, !tbaa !188
  %80 = getelementptr inbounds float, ptr %79, i64 0
  %81 = load float, ptr %80, align 4, !tbaa !99
  %82 = fneg nsz float %81
  %83 = load ptr, ptr %10, align 8, !tbaa !188
  %84 = getelementptr inbounds float, ptr %83, i64 1
  %85 = load float, ptr %84, align 4, !tbaa !99
  %86 = fdiv nsz float %82, %85
  store float %86, ptr %25, align 4, !tbaa !99
  %87 = load ptr, ptr %10, align 8, !tbaa !188
  %88 = getelementptr inbounds float, ptr %87, i64 2
  %89 = load float, ptr %88, align 4, !tbaa !99
  %90 = fneg nsz float %89
  %91 = load ptr, ptr %10, align 8, !tbaa !188
  %92 = getelementptr inbounds float, ptr %91, i64 1
  %93 = load float, ptr %92, align 4, !tbaa !99
  %94 = fdiv nsz float %90, %93
  store float %94, ptr %26, align 4, !tbaa !99
  store i32 0, ptr %24, align 4, !tbaa !9
  br label %112

95:                                               ; preds = %69
  %96 = load ptr, ptr %10, align 8, !tbaa !188
  %97 = getelementptr inbounds float, ptr %96, i64 0
  %98 = load float, ptr %97, align 4, !tbaa !99
  %99 = load ptr, ptr %10, align 8, !tbaa !188
  %100 = getelementptr inbounds float, ptr %99, i64 1
  %101 = load float, ptr %100, align 4, !tbaa !99
  %102 = fdiv nsz float %98, %101
  store float %102, ptr %25, align 4, !tbaa !99
  %103 = load ptr, ptr %10, align 8, !tbaa !188
  %104 = getelementptr inbounds float, ptr %103, i64 2
  %105 = load float, ptr %104, align 4, !tbaa !99
  %106 = fneg nsz float %105
  %107 = load ptr, ptr %10, align 8, !tbaa !188
  %108 = getelementptr inbounds float, ptr %107, i64 1
  %109 = load float, ptr %108, align 4, !tbaa !99
  %110 = fdiv nsz float %106, %109
  store float %110, ptr %26, align 4, !tbaa !99
  %111 = load i32, ptr %22, align 4, !tbaa !9
  store i32 %111, ptr %24, align 4, !tbaa !9
  br label %112

112:                                              ; preds = %95, %78
  %113 = load i32, ptr %21, align 4, !tbaa !9
  %114 = sitofp i32 %113 to float
  %115 = fmul nsz float 5.000000e-01, %114
  %116 = load float, ptr %25, align 4, !tbaa !99
  %117 = call nsz float @llvm.fmuladd.f32(float %116, float 0x3FEFAE1480000000, float 1.000000e+00)
  %118 = fmul nsz float %115, %117
  store float %118, ptr %25, align 4, !tbaa !99
  %119 = load i32, ptr %22, align 4, !tbaa !9
  %120 = sitofp i32 %119 to float
  %121 = fmul nsz float 5.000000e-01, %120
  %122 = load float, ptr %26, align 4, !tbaa !99
  %123 = call nsz float @llvm.fmuladd.f32(float %122, float 0x3FEFAE1480000000, float 1.000000e+00)
  %124 = fmul nsz float %121, %123
  store float %124, ptr %26, align 4, !tbaa !99
  br label %125

125:                                              ; preds = %112, %48
  %126 = load float, ptr %25, align 4, !tbaa !99
  %127 = call nsz float @llvm.floor.f32(float %126)
  %128 = fptosi float %127 to i32
  store i32 %128, ptr %27, align 4, !tbaa !9
  %129 = load float, ptr %26, align 4, !tbaa !99
  %130 = call nsz float @llvm.floor.f32(float %129)
  %131 = fptosi float %130 to i32
  store i32 %131, ptr %28, align 4, !tbaa !9
  %132 = load float, ptr %25, align 4, !tbaa !99
  %133 = load i32, ptr %27, align 4, !tbaa !9
  %134 = sitofp i32 %133 to float
  %135 = fsub nsz float %132, %134
  %136 = load ptr, ptr %15, align 8, !tbaa !188
  store float %135, ptr %136, align 4, !tbaa !99
  %137 = load float, ptr %26, align 4, !tbaa !99
  %138 = load i32, ptr %28, align 4, !tbaa !9
  %139 = sitofp i32 %138 to float
  %140 = fsub nsz float %137, %139
  %141 = load ptr, ptr %16, align 8, !tbaa !188
  store float %140, ptr %141, align 4, !tbaa !99
  call void @llvm.lifetime.start.p0(i64 4, ptr %29) #13
  store i32 0, ptr %29, align 4, !tbaa !9
  br label %142

142:                                              ; preds = %190, %125
  %143 = load i32, ptr %29, align 4, !tbaa !9
  %144 = icmp slt i32 %143, 4
  br i1 %144, label %146, label %145

145:                                              ; preds = %142
  store i32 2, ptr %30, align 4
  call void @llvm.lifetime.end.p0(i64 4, ptr %29) #13
  br label %193

146:                                              ; preds = %142
  call void @llvm.lifetime.start.p0(i64 4, ptr %31) #13
  store i32 0, ptr %31, align 4, !tbaa !9
  br label %147

147:                                              ; preds = %186, %146
  %148 = load i32, ptr %31, align 4, !tbaa !9
  %149 = icmp slt i32 %148, 4
  br i1 %149, label %151, label %150

150:                                              ; preds = %147
  store i32 5, ptr %30, align 4
  call void @llvm.lifetime.end.p0(i64 4, ptr %31) #13
  br label %189

151:                                              ; preds = %147
  %152 = load i32, ptr %23, align 4, !tbaa !9
  %153 = load i32, ptr %27, align 4, !tbaa !9
  %154 = load i32, ptr %31, align 4, !tbaa !9
  %155 = add nsw i32 %153, %154
  %156 = sub nsw i32 %155, 1
  %157 = load i32, ptr %21, align 4, !tbaa !9
  %158 = sub nsw i32 %157, 1
  %159 = call i32 @av_clip_c(i32 noundef %156, i32 noundef 0, i32 noundef %158) #14
  %160 = add nsw i32 %152, %159
  %161 = trunc i32 %160 to i16
  %162 = load ptr, ptr %13, align 8, !tbaa !21
  %163 = load i32, ptr %29, align 4, !tbaa !9
  %164 = sext i32 %163 to i64
  %165 = getelementptr inbounds [4 x i16], ptr %162, i64 %164
  %166 = load i32, ptr %31, align 4, !tbaa !9
  %167 = sext i32 %166 to i64
  %168 = getelementptr inbounds [4 x i16], ptr %165, i64 0, i64 %167
  store i16 %161, ptr %168, align 2, !tbaa !23
  %169 = load i32, ptr %24, align 4, !tbaa !9
  %170 = load i32, ptr %28, align 4, !tbaa !9
  %171 = load i32, ptr %29, align 4, !tbaa !9
  %172 = add nsw i32 %170, %171
  %173 = sub nsw i32 %172, 1
  %174 = load i32, ptr %22, align 4, !tbaa !9
  %175 = sub nsw i32 %174, 1
  %176 = call i32 @av_clip_c(i32 noundef %173, i32 noundef 0, i32 noundef %175) #14
  %177 = add nsw i32 %169, %176
  %178 = trunc i32 %177 to i16
  %179 = load ptr, ptr %14, align 8, !tbaa !21
  %180 = load i32, ptr %29, align 4, !tbaa !9
  %181 = sext i32 %180 to i64
  %182 = getelementptr inbounds [4 x i16], ptr %179, i64 %181
  %183 = load i32, ptr %31, align 4, !tbaa !9
  %184 = sext i32 %183 to i64
  %185 = getelementptr inbounds [4 x i16], ptr %182, i64 0, i64 %184
  store i16 %178, ptr %185, align 2, !tbaa !23
  br label %186

186:                                              ; preds = %151
  %187 = load i32, ptr %31, align 4, !tbaa !9
  %188 = add nsw i32 %187, 1
  store i32 %188, ptr %31, align 4, !tbaa !9
  br label %147, !llvm.loop !210

189:                                              ; preds = %150
  br label %190

190:                                              ; preds = %189
  %191 = load i32, ptr %29, align 4, !tbaa !9
  %192 = add nsw i32 %191, 1
  store i32 %192, ptr %29, align 4, !tbaa !9
  br label %142, !llvm.loop !211

193:                                              ; preds = %145
  store i32 1, ptr %30, align 4
  call void @llvm.lifetime.end.p0(i64 4, ptr %28) #13
  call void @llvm.lifetime.end.p0(i64 4, ptr %27) #13
  call void @llvm.lifetime.end.p0(i64 4, ptr %26) #13
  call void @llvm.lifetime.end.p0(i64 4, ptr %25) #13
  call void @llvm.lifetime.end.p0(i64 4, ptr %24) #13
  call void @llvm.lifetime.end.p0(i64 4, ptr %23) #13
  call void @llvm.lifetime.end.p0(i64 4, ptr %22) #13
  call void @llvm.lifetime.end.p0(i64 4, ptr %21) #13
  call void @llvm.lifetime.end.p0(i64 4, ptr %20) #13
  call void @llvm.lifetime.end.p0(i64 4, ptr %19) #13
  call void @llvm.lifetime.end.p0(i64 4, ptr %18) #13
  call void @llvm.lifetime.end.p0(i64 4, ptr %17) #13
  ret i32 1
}