; Function Attrs: nofree norecurse nosync nounwind memory(argmem: readwrite) uwtable
define internal noundef i32 @xyz_to_barrel(ptr readnone captures(none) %0, ptr noundef readonly captures(none) %1, i32 noundef %2, i32 noundef %3, ptr noundef writeonly captures(none) %4, ptr noundef writeonly captures(none) %5, ptr noundef writeonly captures(none) initializes((0, 4)) %6, ptr noundef writeonly captures(none) initializes((0, 4)) %7) #1 {
  %9 = load float, ptr %1, align 4, !tbaa !49
  %10 = getelementptr inbounds nuw i8, ptr %1, i64 8
  %11 = load float, ptr %10, align 4, !tbaa !49
  %12 = getelementptr inbounds nuw i8, ptr %1, i64 4
  %13 = load float, ptr %12, align 4, !tbaa !49
  %14 = tail call nsz float @llvm.asin.f32(float %13)
  %15 = tail call nsz float @llvm.fabs.f32(float %14)
  %or.cond = fcmp nsz olt float %15, 0x3FE921FB60000000
  br i1 %or.cond, label %16, label %32

16:                                               ; preds = %8
  %17 = tail call nsz float @llvm.atan2.f32(float %9, float %11)
  %18 = shl nsw i32 %2, 2
  %19 = sdiv i32 %18, 5
  %20 = fpext nsz float %17 to double
  %21 = fdiv nsz double %20, 0x400921FB54442D18
  %22 = tail call nsz double @llvm.fmuladd.f64(double %21, double 0x3FEFAE1480000000, double 1.000000e+00)
  %23 = sitofp i32 %19 to double
  %24 = fmul nsz double %22, %23
  %25 = fmul nsz double %24, 5.000000e-01
  %26 = fptrunc nsz double %25 to float
  %27 = fdiv nsz float %14, 0x3FE921FB60000000
  %28 = tail call nsz float @llvm.fmuladd.f32(float %27, float 0x3FEFAE1480000000, float 1.000000e+00)
  %29 = sitofp i32 %3 to float
  %30 = fmul nsz float %28, %29
  %31 = fmul nsz float %30, 5.000000e-01
  br label %47

32:                                               ; preds = %8
  %33 = sdiv i32 %2, 5
  %34 = sdiv i32 %3, 2
  %35 = shl nsw i32 %33, 2
  %36 = fcmp nsz olt float %14, 0.000000e+00
  %37 = fneg nsz float %9
  %38 = fneg nsz float %11
  %.161 = select i1 %36, i32 0, i32 %34
  %.pn = select i1 %36, float %37, float %9
  %.1 = fdiv nsz float %38, %13
  %.159 = fdiv nsz float %.pn, %13
  %39 = sitofp i32 %33 to float
  %40 = fmul nsz float %39, 5.000000e-01
  %41 = tail call nsz float @llvm.fmuladd.f32(float %.159, float 0x3FEFAE1480000000, float 1.000000e+00)
  %42 = fmul nsz float %40, %41
  %43 = sitofp i32 %34 to float
  %44 = fmul nsz float %43, 5.000000e-01
  %45 = tail call nsz float @llvm.fmuladd.f32(float %.1, float 0x3FEFAE1480000000, float 1.000000e+00)
  %46 = fmul nsz float %44, %45
  br label %47

47:                                               ; preds = %32, %16
  %.062 = phi i32 [ 0, %16 ], [ %35, %32 ]
  %.060 = phi i32 [ 0, %16 ], [ %.161, %32 ]
  %.058 = phi nsz float [ %26, %16 ], [ %42, %32 ]
  %.057 = phi nsz float [ %31, %16 ], [ %46, %32 ]
  %.056 = phi i32 [ %3, %16 ], [ %34, %32 ]
  %.055 = phi i32 [ %19, %16 ], [ %33, %32 ]
  %48 = tail call nsz float @llvm.floor.f32(float %.058)
  %49 = fptosi float %48 to i32
  %50 = tail call nsz float @llvm.floor.f32(float %.057)
  %51 = fptosi float %50 to i32
  %52 = sitofp i32 %49 to float
  %53 = fsub nsz float %.058, %52
  store float %53, ptr %6, align 4, !tbaa !49
  %54 = sitofp i32 %51 to float
  %55 = fsub nsz float %.057, %54
  store float %55, ptr %7, align 4, !tbaa !49
  %56 = sext i32 %49 to i64
  %57 = sext i32 %51 to i64
  br label %.preheader

.preheader:                                       ; preds = %47, %64
  %indvars.iv71 = phi i64 [ 0, %47 ], [ %indvars.iv.next72, %64 ]
  %58 = add nsw i64 %indvars.iv71, %57
  %59 = trunc nsw i64 %58 to i32
  %60 = tail call i32 @llvm.smin.i32(i32 %59, i32 %.056)
  %..i65 = add i32 %60, 65535
  %.inv67 = icmp sgt i64 %58, 0
  %.0.i66 = select i1 %.inv67, i32 %..i65, i32 0
  %61 = add i32 %.0.i66, %.060
  %62 = trunc i32 %61 to i16
  br label %65

63:                                               ; preds = %64
  ret i32 1

64:                                               ; preds = %65
  %indvars.iv.next72 = add nuw nsw i64 %indvars.iv71, 1
  %exitcond74.not = icmp eq i64 %indvars.iv.next72, 4
  br i1 %exitcond74.not, label %63, label %.preheader, !llvm.loop !199

65:                                               ; preds = %.preheader, %65
  %indvars.iv = phi i64 [ 0, %.preheader ], [ %indvars.iv.next, %65 ]
  %66 = add nsw i64 %indvars.iv, %56
  %67 = trunc nsw i64 %66 to i32
  %68 = tail call i32 @llvm.smin.i32(i32 %67, i32 %.055)
  %..i = add nsw i32 %68, 65535
  %.inv = icmp sgt i64 %66, 0
  %.0.i = select i1 %.inv, i32 %..i, i32 0
  %69 = add i32 %.0.i, %.062
  %70 = trunc i32 %69 to i16
  %71 = getelementptr inbounds nuw [4 x i16], ptr %4, i64 %indvars.iv71, i64 %indvars.iv
  store i16 %70, ptr %71, align 2, !tbaa !15
  %72 = getelementptr inbounds nuw [4 x i16], ptr %5, i64 %indvars.iv71, i64 %indvars.iv
  store i16 %62, ptr %72, align 2, !tbaa !15
  %indvars.iv.next = add nuw nsw i64 %indvars.iv, 1
  %exitcond.not = icmp eq i64 %indvars.iv.next, 4
  br i1 %exitcond.not, label %64, label %65, !llvm.loop !200
}